; Function Attrs: mustprogress uwtable
define void @_ZN10open_spiel10algorithms22TabularBestResponseMDPC2ERKNS_4GameERKNS_6PolicyE(ptr noundef nonnull align 8 dereferenceable(44) initializes((0, 40)) %0, ptr noundef nonnull align 8 dereferenceable(280) %1, ptr noundef nonnull align 8 dereferenceable(8) %2) unnamed_addr #3 align 2 personality ptr @__gxx_personality_v0 {
  tail call void @llvm.memset.p0.i64(ptr noundef nonnull align 8 dereferenceable(24) %0, i8 0, i64 24, i1 false)
  %4 = getelementptr inbounds nuw i8, ptr %0, i64 24
  store ptr %1, ptr %4, align 8
  %5 = getelementptr inbounds nuw i8, ptr %0, i64 32
  store ptr %2, ptr %5, align 8
  %6 = load ptr, ptr %1, align 8
  %7 = getelementptr inbounds nuw i8, ptr %6, i64 56
  %8 = load ptr, ptr %7, align 8
  %9 = invoke noundef i32 %8(ptr noundef nonnull align 8 dereferenceable(280) %1)
          to label %10 unwind label %12

10:                                               ; preds = %3
  %11 = getelementptr inbounds nuw i8, ptr %0, i64 40
  store i32 %9, ptr %11, align 8
  ret void

12:                                               ; preds = %3
  %13 = landingpad { ptr, i32 }
          cleanup
  tail call void @_ZNSt6vectorISt10unique_ptrIN10open_spiel10algorithms3MDPESt14default_deleteIS3_EESaIS6_EED2Ev(ptr noundef nonnull align 8 dereferenceable(24) %0) #23
  resume { ptr, i32 } %13
}